(dp0
S'max_darkness'
p1
I234
sS'skin_color_variance'
p2
F0.1
sS'max_saturation'
p3
I213
sS'erode'
p4
I2
sS'face_bottom_offset'
p5
F0.9
sS'dilate'
p7
I11
sS'min_saturation'
p8
I89
sS'smooth'
p9
I4
sS'min_darkness'
p12
I17
sS'min_hue'
p13
I2
sS'face_top_offset'
p14
F0.9
sS'face_left_offset'
p15
F0.1
sS'wait_between_frames'
p17
I10
sS'min_threshold'
p18
I70
asS'max_hue'
p24
I142
sS'face_right_offset'
p25
F0.1
s.
