(dp0
S'max_darkness'
p1
I225
sS'skin_color_variance'
p2
F0.1
sS'max_saturation'
p3
I173
sS'erode'
p4
I9
sS'face_bottom_offset'
p5
F0.9
sS'min_saturation'
p6
I58
sS'min_hue'
p7
I0
sS'wait_between_frames'
p8
I10
sS'face_right_offset'
p9
F0.1
sS'dilate'
p10
I5
sS'face_left_offset'
p11
F0.1
sS'smooth'
p12
I9
sS'min_darkness'
p13
I20
sS'face_top_offset'
p14
F0.9
sS'min_threshold'
p15
I70
sS'max_hue'
p16
I50
s.