(dp0
S'max_darkness'
p1
I84
sS'skin_color_variance'
p2
F0.1
sS'max_saturation'
p3
I170
sS'erode'
p4
I2
sS'face_bottom_offset'
p5
F0.9
sS'min_saturation'
p6
I12
sS'min_hue'
p7
I152
sS'wait_between_frames'
p8
I10
sS'face_right_offset'
p9
F0.1
sS'dilate'
p10
I3
sS'face_left_offset'
p11
F0.1
sS'smooth'
p12
I1
sS'min_darkness'
p13
I29
sS'face_top_offset'
p14
F0.9
sS'min_threshold'
p15
I70
sS'max_hue'
p16
I178
s.